target datalayout = "e-m:e-p270:32:32-p271:32:32-p272:64:64-i64:64-i128:128-f80:128-n8:16:32:64-S128"
target triple = "x86_64-pc-linux-gnu"

%struct.prov_drbg_st = type { ptr, ptr, ptr, ptr, ptr, ptr, ptr, ptr, ptr, ptr, ptr, ptr, ptr, ptr, i32, i16, i32, i64, i64, i64, i64, i64, i64, i64, i32, i32, i64, i64, i32, i32, i32, i64, i32, ptr, ptr, ptr, ptr, ptr, ptr }
%struct.rand_drbg_ctr_st = type { ptr, ptr, ptr, ptr, ptr, i64, i32, [32 x i8], [16 x i8], [16 x i8], i64, [48 x i8] }

; Function Attrs: nounwind uwtable
define internal void @ctr96_inc(ptr noundef %0) #0 {
  %2 = alloca ptr, align 8
  %3 = alloca i32, align 4
  %4 = alloca i32, align 4
  store ptr %0, ptr %2, align 8, !tbaa !28
  call void @llvm.lifetime.start.p0(i64 4, ptr %3) #6
  store i32 12, ptr %3, align 4, !tbaa !27
  call void @llvm.lifetime.start.p0(i64 4, ptr %4) #6
  store i32 1, ptr %4, align 4, !tbaa !27
  br label %5

5:                                                ; preds = %24, %1
  %6 = load i32, ptr %3, align 4, !tbaa !27
  %7 = add i32 %6, -1
  store i32 %7, ptr %3, align 4, !tbaa !27
  %8 = load ptr, ptr %2, align 8, !tbaa !28
  %9 = load i32, ptr %3, align 4, !tbaa !27
  %10 = zext i32 %9 to i64
  %11 = getelementptr inbounds nuw i8, ptr %8, i64 %10
  %12 = load i8, ptr %11, align 1, !tbaa !35
  %13 = zext i8 %12 to i32
  %14 = load i32, ptr %4, align 4, !tbaa !27
  %15 = add i32 %14, %13
  store i32 %15, ptr %4, align 4, !tbaa !27
  %16 = load i32, ptr %4, align 4, !tbaa !27
  %17 = trunc i32 %16 to i8
  %18 = load ptr, ptr %2, align 8, !tbaa !28
  %19 = load i32, ptr %3, align 4, !tbaa !27
  %20 = zext i32 %19 to i64
  %21 = getelementptr inbounds nuw i8, ptr %18, i64 %20
  store i8 %17, ptr %21, align 1, !tbaa !35
  %22 = load i32, ptr %4, align 4, !tbaa !27
  %23 = lshr i32 %22, 8
  store i32 %23, ptr %4, align 4, !tbaa !27
  br label %24

24:                                               ; preds = %5
  %25 = load i32, ptr %3, align 4, !tbaa !27
  %26 = icmp ne i32 %25, 0
  br i1 %26, label %5, label %27, !llvm.loop !59

27:                                               ; preds = %24
  call void @llvm.lifetime.end.p0(i64 4, ptr %4) #6
  call void @llvm.lifetime.end.p0(i64 4, ptr %3) #6
  ret void
}

; Function Attrs: nounwind uwtable
define internal void @inc_128(ptr noundef %0) #0 {
  %2 = alloca ptr, align 8
  %3 = alloca ptr, align 8
  %4 = alloca i32, align 4
  %5 = alloca i32, align 4
  store ptr %0, ptr %2, align 8, !tbaa !17
  call void @llvm.lifetime.start.p0(i64 8, ptr %3) #6
  %6 = load ptr, ptr %2, align 8, !tbaa !17
  %7 = getelementptr inbounds nuw %struct.rand_drbg_ctr_st, ptr %6, i32 0, i32 8
  %8 = getelementptr inbounds [16 x i8], ptr %7, i64 0, i64 0
  store ptr %8, ptr %3, align 8, !tbaa !28
  call void @llvm.lifetime.start.p0(i64 4, ptr %4) #6
  store i32 16, ptr %4, align 4, !tbaa !27
  call void @llvm.lifetime.start.p0(i64 4, ptr %5) #6
  store i32 1, ptr %5, align 4, !tbaa !27
  br label %9

9:                                                ; preds = %28, %1
  %10 = load i32, ptr %4, align 4, !tbaa !27
  %11 = add i32 %10, -1
  store i32 %11, ptr %4, align 4, !tbaa !27
  %12 = load ptr, ptr %3, align 8, !tbaa !28
  %13 = load i32, ptr %4, align 4, !tbaa !27
  %14 = zext i32 %13 to i64
  %15 = getelementptr inbounds nuw i8, ptr %12, i64 %14
  %16 = load i8, ptr %15, align 1, !tbaa !35
  %17 = zext i8 %16 to i32
  %18 = load i32, ptr %5, align 4, !tbaa !27
  %19 = add i32 %18, %17
  store i32 %19, ptr %5, align 4, !tbaa !27
  %20 = load i32, ptr %5, align 4, !tbaa !27
  %21 = trunc i32 %20 to i8
  %22 = load ptr, ptr %3, align 8, !tbaa !28
  %23 = load i32, ptr %4, align 4, !tbaa !27
  %24 = zext i32 %23 to i64
  %25 = getelementptr inbounds nuw i8, ptr %22, i64 %24
  store i8 %21, ptr %25, align 1, !tbaa !35
  %26 = load i32, ptr %5, align 4, !tbaa !27
  %27 = lshr i32 %26, 8
  store i32 %27, ptr %5, align 4, !tbaa !27
  br label %28

28:                                               ; preds = %9
  %29 = load i32, ptr %4, align 4, !tbaa !27
  %30 = icmp ne i32 %29, 0
  br i1 %30, label %9, label %31, !llvm.loop !54

31:                                               ; preds = %28
  call void @llvm.lifetime.end.p0(i64 4, ptr %5) #6
  call void @llvm.lifetime.end.p0(i64 4, ptr %4) #6
  call void @llvm.lifetime.end.p0(i64 8, ptr %3) #6
  ret void
}

; Function Attrs: nounwind uwtable
define internal i32 @drbg_ctr_generate(ptr noundef %0, ptr noundef %1, i64 noundef %2, ptr noundef %3, i64 noundef %4) #0 {
  %6 = alloca i32, align 4
  %7 = alloca ptr, align 8
  %8 = alloca ptr, align 8
  %9 = alloca i64, align 8
  %10 = alloca ptr, align 8
  %11 = alloca i64, align 8
  %12 = alloca ptr, align 8
  %13 = alloca i32, align 4
  %14 = alloca i32, align 4
  %15 = alloca i32, align 4
  %16 = alloca i32, align 4
  %17 = alloca i32, align 4
  %18 = alloca i32, align 4
  %19 = alloca i32, align 4
  %20 = alloca i32, align 4
  %21 = alloca i32, align 4
  store ptr %0, ptr %7, align 8, !tbaa !9
  store ptr %1, ptr %8, align 8, !tbaa !28
  store i64 %2, ptr %9, align 8, !tbaa !30
  store ptr %3, ptr %10, align 8, !tbaa !28
  store i64 %4, ptr %11, align 8, !tbaa !30
  call void @llvm.lifetime.start.p0(i64 8, ptr %12) #6
  %22 = load ptr, ptr %7, align 8, !tbaa !9
  %23 = getelementptr inbounds nuw %struct.prov_drbg_st, ptr %22, i32 0, i32 33
  %24 = load ptr, ptr %23, align 8, !tbaa !11
  store ptr %24, ptr %12, align 8, !tbaa !17
  call void @llvm.lifetime.start.p0(i64 4, ptr %13) #6
  call void @llvm.lifetime.start.p0(i64 4, ptr %14) #6
  call void @llvm.lifetime.start.p0(i64 4, ptr %15) #6
  call void @llvm.lifetime.start.p0(i64 4, ptr %16) #6
  %25 = load ptr, ptr %10, align 8, !tbaa !28
  %26 = icmp ne ptr %25, null
  br i1 %26, label %27, label %45

27:                                               ; preds = %5
  %28 = load i64, ptr %11, align 8, !tbaa !30
  %29 = icmp ne i64 %28, 0
  br i1 %29, label %30, label %45

30:                                               ; preds = %27
  %31 = load ptr, ptr %12, align 8, !tbaa !17
  call void @inc_128(ptr noundef %31)
  %32 = load ptr, ptr %7, align 8, !tbaa !9
  %33 = load ptr, ptr %10, align 8, !tbaa !28
  %34 = load i64, ptr %11, align 8, !tbaa !30
  %35 = call i32 @ctr_update(ptr noundef %32, ptr noundef %33, i64 noundef %34, ptr noundef null, i64 noundef 0, ptr noundef null, i64 noundef 0)
  %36 = icmp ne i32 %35, 0
  br i1 %36, label %38, label %37

37:                                               ; preds = %30
  store i32 0, ptr %6, align 4
  store i32 1, ptr %17, align 4
  br label %154

38:                                               ; preds = %30
  %39 = load ptr, ptr %12, align 8, !tbaa !17
  %40 = getelementptr inbounds nuw %struct.rand_drbg_ctr_st, ptr %39, i32 0, i32 6
  %41 = load i32, ptr %40, align 8, !tbaa !34
  %42 = icmp ne i32 %41, 0
  br i1 %42, label %43, label %44

43:                                               ; preds = %38
  store ptr null, ptr %10, align 8, !tbaa !28
  store i64 1, ptr %11, align 8, !tbaa !30
  br label %44

44:                                               ; preds = %43, %38
  br label %46

45:                                               ; preds = %27, %5
  store i64 0, ptr %11, align 8, !tbaa !30
  br label %46

46:                                               ; preds = %45, %44
  %47 = load ptr, ptr %12, align 8, !tbaa !17
  call void @inc_128(ptr noundef %47)
  %48 = load i64, ptr %9, align 8, !tbaa !30
  %49 = icmp eq i64 %48, 0
  br i1 %49, label %50, label %59

50:                                               ; preds = %46
  %51 = load ptr, ptr %12, align 8, !tbaa !17
  call void @inc_128(ptr noundef %51)
  %52 = load ptr, ptr %7, align 8, !tbaa !9
  %53 = load ptr, ptr %10, align 8, !tbaa !28
  %54 = load i64, ptr %11, align 8, !tbaa !30
  %55 = call i32 @ctr_update(ptr noundef %52, ptr noundef %53, i64 noundef %54, ptr noundef null, i64 noundef 0, ptr noundef null, i64 noundef 0)
  %56 = icmp ne i32 %55, 0
  br i1 %56, label %58, label %57

57:                                               ; preds = %50
  store i32 0, ptr %6, align 4
  store i32 1, ptr %17, align 4
  br label %154

58:                                               ; preds = %50
  store i32 1, ptr %6, align 4
  store i32 1, ptr %17, align 4
  br label %154

59:                                               ; preds = %46
  %60 = load ptr, ptr %8, align 8, !tbaa !28
  %61 = load i64, ptr %9, align 8, !tbaa !30
  call void @llvm.memset.p0.i64(ptr align 1 %60, i8 0, i64 %61, i1 false)
  br label %62

62:                                               ; preds = %143, %59
  %63 = load ptr, ptr %12, align 8, !tbaa !17
  %64 = getelementptr inbounds nuw %struct.rand_drbg_ctr_st, ptr %63, i32 0, i32 1
  %65 = load ptr, ptr %64, align 8, !tbaa !23
  %66 = load ptr, ptr %12, align 8, !tbaa !17
  %67 = getelementptr inbounds nuw %struct.rand_drbg_ctr_st, ptr %66, i32 0, i32 8
  %68 = getelementptr inbounds [16 x i8], ptr %67, i64 0, i64 0
  %69 = call i32 @EVP_CipherInit_ex(ptr noundef %65, ptr noundef null, ptr noundef null, ptr noundef null, ptr noundef %68, i32 noundef -1)
  %70 = icmp ne i32 %69, 0
  br i1 %70, label %72, label %71

71:                                               ; preds = %62
  store i32 0, ptr %6, align 4
  store i32 1, ptr %17, align 4
  br label %154

72:                                               ; preds = %62
  %73 = load i64, ptr %9, align 8, !tbaa !30
  %74 = icmp ugt i64 %73, 1073741824
  br i1 %74, label %75, label %76

75:                                               ; preds = %72
  br label %78

76:                                               ; preds = %72
  %77 = load i64, ptr %9, align 8, !tbaa !30
  br label %78

78:                                               ; preds = %76, %75
  %79 = phi i64 [ 1073741824, %75 ], [ %77, %76 ]
  %80 = trunc i64 %79 to i32
  store i32 %80, ptr %16, align 4, !tbaa !27
  %81 = load i32, ptr %16, align 4, !tbaa !27
  %82 = add nsw i32 %81, 15
  %83 = sdiv i32 %82, 16
  store i32 %83, ptr %14, align 4, !tbaa !27
  call void @llvm.lifetime.start.p0(i64 4, ptr %18) #6
  %84 = load ptr, ptr %12, align 8, !tbaa !17
  %85 = getelementptr inbounds nuw %struct.rand_drbg_ctr_st, ptr %84, i32 0, i32 8
  %86 = getelementptr inbounds [16 x i8], ptr %85, i64 0, i64 0
  %87 = getelementptr inbounds i8, ptr %86, i64 12
  %88 = load i32, ptr %87, align 4, !tbaa !27
  store i32 %88, ptr %18, align 4, !tbaa !27
  %89 = load i32, ptr %18, align 4, !tbaa !27
  %90 = call i32 asm "bswapl $0", "=r,0,~{dirflag},~{fpsr},~{flags}"(i32 %89) #7, !srcloc !42
  store i32 %90, ptr %18, align 4, !tbaa !27
  %91 = load i32, ptr %18, align 4, !tbaa !27
  store i32 %91, ptr %19, align 4, !tbaa !27
  call void @llvm.lifetime.end.p0(i64 4, ptr %18) #6
  %92 = load i32, ptr %19, align 4, !tbaa !27
  %93 = load i32, ptr %14, align 4, !tbaa !27
  %94 = add i32 %92, %93
  store i32 %94, ptr %13, align 4, !tbaa !27
  %95 = load i32, ptr %13, align 4, !tbaa !27
  %96 = load i32, ptr %14, align 4, !tbaa !27
  %97 = icmp ult i32 %95, %96
  br i1 %97, label %98, label %111

98:                                               ; preds = %78
  %99 = load i32, ptr %13, align 4, !tbaa !27
  %100 = icmp ne i32 %99, 0
  br i1 %100, label %101, label %107

101:                                              ; preds = %98
  %102 = load i32, ptr %13, align 4, !tbaa !27
  %103 = load i32, ptr %14, align 4, !tbaa !27
  %104 = sub i32 %103, %102
  store i32 %104, ptr %14, align 4, !tbaa !27
  %105 = load i32, ptr %14, align 4, !tbaa !27
  %106 = mul i32 %105, 16
  store i32 %106, ptr %16, align 4, !tbaa !27
  store i32 0, ptr %13, align 4, !tbaa !27
  br label %107

107:                                              ; preds = %101, %98
  %108 = load ptr, ptr %12, align 8, !tbaa !17
  %109 = getelementptr inbounds nuw %struct.rand_drbg_ctr_st, ptr %108, i32 0, i32 8
  %110 = getelementptr inbounds [16 x i8], ptr %109, i64 0, i64 0
  call void @ctr96_inc(ptr noundef %110)
  br label %111

111:                                              ; preds = %107, %78
  call void @llvm.lifetime.start.p0(i64 4, ptr %20) #6
  %112 = load i32, ptr %13, align 4, !tbaa !27
  store i32 %112, ptr %20, align 4, !tbaa !27
  %113 = load i32, ptr %20, align 4, !tbaa !27
  %114 = call i32 asm "bswapl $0", "=r,0,~{dirflag},~{fpsr},~{flags}"(i32 %113) #7, !srcloc !43
  store i32 %114, ptr %20, align 4, !tbaa !27
  %115 = load i32, ptr %20, align 4, !tbaa !27
  store i32 %115, ptr %21, align 4, !tbaa !27
  call void @llvm.lifetime.end.p0(i64 4, ptr %20) #6
  %116 = load i32, ptr %21, align 4, !tbaa !27
  %117 = load ptr, ptr %12, align 8, !tbaa !17
  %118 = getelementptr inbounds nuw %struct.rand_drbg_ctr_st, ptr %117, i32 0, i32 8
  %119 = getelementptr inbounds [16 x i8], ptr %118, i64 0, i64 0
  %120 = getelementptr inbounds i8, ptr %119, i64 12
  store i32 %116, ptr %120, align 4, !tbaa !27
  %121 = load ptr, ptr %12, align 8, !tbaa !17
  %122 = getelementptr inbounds nuw %struct.rand_drbg_ctr_st, ptr %121, i32 0, i32 1
  %123 = load ptr, ptr %122, align 8, !tbaa !23
  %124 = load ptr, ptr %8, align 8, !tbaa !28
  %125 = load ptr, ptr %8, align 8, !tbaa !28
  %126 = load i32, ptr %16, align 4, !tbaa !27
  %127 = call i32 @EVP_CipherUpdate(ptr noundef %123, ptr noundef %124, ptr noundef %15, ptr noundef %125, i32 noundef %126)
  %128 = icmp ne i32 %127, 0
  br i1 %128, label %129, label %133

129:                                              ; preds = %111
  %130 = load i32, ptr %15, align 4, !tbaa !27
  %131 = load i32, ptr %16, align 4, !tbaa !27
  %132 = icmp ne i32 %130, %131
  br i1 %132, label %133, label %134

133:                                              ; preds = %129, %111
  store i32 0, ptr %6, align 4
  store i32 1, ptr %17, align 4
  br label %154

134:                                              ; preds = %129
  %135 = load i32, ptr %16, align 4, !tbaa !27
  %136 = load ptr, ptr %8, align 8, !tbaa !28
  %137 = sext i32 %135 to i64
  %138 = getelementptr inbounds i8, ptr %136, i64 %137
  store ptr %138, ptr %8, align 8, !tbaa !28
  %139 = load i32, ptr %16, align 4, !tbaa !27
  %140 = sext i32 %139 to i64
  %141 = load i64, ptr %9, align 8, !tbaa !30
  %142 = sub i64 %141, %140
  store i64 %142, ptr %9, align 8, !tbaa !30
  br label %143

143:                                              ; preds = %134
  %144 = load i64, ptr %9, align 8, !tbaa !30
  %145 = icmp ne i64 %144, 0
  br i1 %145, label %62, label %146, !llvm.loop !44

146:                                              ; preds = %143
  %147 = load ptr, ptr %7, align 8, !tbaa !9
  %148 = load ptr, ptr %10, align 8, !tbaa !28
  %149 = load i64, ptr %11, align 8, !tbaa !30
  %150 = call i32 @ctr_update(ptr noundef %147, ptr noundef %148, i64 noundef %149, ptr noundef null, i64 noundef 0, ptr noundef null, i64 noundef 0)
  %151 = icmp ne i32 %150, 0
  br i1 %151, label %153, label %152

152:                                              ; preds = %146
  store i32 0, ptr %6, align 4
  store i32 1, ptr %17, align 4
  br label %154

153:                                              ; preds = %146
  store i32 1, ptr %6, align 4
  store i32 1, ptr %17, align 4
  br label %154

154:                                              ; preds = %153, %152, %133, %71, %58, %57, %37
  call void @llvm.lifetime.end.p0(i64 4, ptr %16) #6
  call void @llvm.lifetime.end.p0(i64 4, ptr %15) #6
  call void @llvm.lifetime.end.p0(i64 4, ptr %14) #6
  call void @llvm.lifetime.end.p0(i64 4, ptr %13) #6
  call void @llvm.lifetime.end.p0(i64 8, ptr %12) #6
  %155 = load i32, ptr %6, align 4
  ret i32 %155
}