; Function Attrs: nounwind uwtable
define internal range(i32 0, 2) i32 @drbg_ctr_generate(ptr noundef readonly captures(none) %0, ptr noundef %1, i64 noundef %2, ptr noundef captures(address_is_null) %3, i64 noundef %4) #0 {
  %6 = alloca i32, align 4
  %7 = getelementptr inbounds nuw i8, ptr %0, i64 240
  %8 = load ptr, ptr %7, align 8, !tbaa !3
  call void @llvm.lifetime.start.p0(i64 4, ptr nonnull %6) #7
  %9 = icmp ne ptr %3, null
  %10 = icmp ne i64 %4, 0
  %or.cond = and i1 %9, %10
  br i1 %or.cond, label %11, label %24

11:                                               ; preds = %5
  %12 = getelementptr inbounds nuw i8, ptr %8, i64 84
  br label %13

13:                                               ; preds = %13, %11
  %indvars.iv.i = phi i64 [ %indvars.iv.next.i, %13 ], [ 16, %11 ]
  %.0.i = phi i32 [ %19, %13 ], [ 1, %11 ]
  %indvars.iv.next.i = add nsw i64 %indvars.iv.i, -1
  %14 = getelementptr inbounds nuw i8, ptr %12, i64 %indvars.iv.next.i
  %15 = load i8, ptr %14, align 1, !tbaa !26
  %16 = zext i8 %15 to i32
  %17 = add nuw nsw i32 %.0.i, %16
  %18 = trunc i32 %17 to i8
  store i8 %18, ptr %14, align 1, !tbaa !26
  %19 = lshr i32 %17, 8
  %.not.i = icmp eq i64 %indvars.iv.next.i, 0
  br i1 %.not.i, label %inc_128.exit, label %13, !llvm.loop !38

inc_128.exit:                                     ; preds = %13
  %20 = tail call fastcc i32 @ctr_update(ptr noundef %0, ptr noundef nonnull %3, i64 noundef %4, ptr noundef null, i64 noundef 0, ptr noundef null, i64 noundef 0)
  %.not = icmp eq i32 %20, 0
  br i1 %.not, label %.loopexit, label %21

21:                                               ; preds = %inc_128.exit
  %22 = getelementptr inbounds nuw i8, ptr %8, i64 48
  %23 = load i32, ptr %22, align 8, !tbaa !23
  %.not66 = icmp eq i32 %23, 0
  %spec.select = select i1 %.not66, i64 %4, i64 1
  %spec.select74 = select i1 %.not66, ptr %3, ptr null
  br label %24

24:                                               ; preds = %21, %5
  %.058 = phi i64 [ %spec.select, %21 ], [ 0, %5 ]
  %.054 = phi ptr [ %spec.select74, %21 ], [ %3, %5 ]
  %25 = getelementptr inbounds nuw i8, ptr %8, i64 84
  br label %26

26:                                               ; preds = %26, %24
  %indvars.iv.i78 = phi i64 [ %indvars.iv.next.i80, %26 ], [ 16, %24 ]
  %.0.i79 = phi i32 [ %32, %26 ], [ 1, %24 ]
  %indvars.iv.next.i80 = add nsw i64 %indvars.iv.i78, -1
  %27 = getelementptr inbounds nuw i8, ptr %25, i64 %indvars.iv.next.i80
  %28 = load i8, ptr %27, align 1, !tbaa !26
  %29 = zext i8 %28 to i32
  %30 = add nuw nsw i32 %.0.i79, %29
  %31 = trunc i32 %30 to i8
  store i8 %31, ptr %27, align 1, !tbaa !26
  %32 = lshr i32 %30, 8
  %.not.i81 = icmp eq i64 %indvars.iv.next.i80, 0
  br i1 %.not.i81, label %inc_128.exit82, label %26, !llvm.loop !38

inc_128.exit82:                                   ; preds = %26
  %33 = icmp eq i64 %2, 0
  br i1 %33, label %.preheader, label %41

.preheader:                                       ; preds = %inc_128.exit82, %.preheader
  %indvars.iv.i83 = phi i64 [ %indvars.iv.next.i85, %.preheader ], [ 16, %inc_128.exit82 ]
  %.0.i84 = phi i32 [ %39, %.preheader ], [ 1, %inc_128.exit82 ]
  %indvars.iv.next.i85 = add nsw i64 %indvars.iv.i83, -1
  %34 = getelementptr inbounds nuw i8, ptr %25, i64 %indvars.iv.next.i85
  %35 = load i8, ptr %34, align 1, !tbaa !26
  %36 = zext i8 %35 to i32
  %37 = add nuw nsw i32 %.0.i84, %36
  %38 = trunc i32 %37 to i8
  store i8 %38, ptr %34, align 1, !tbaa !26
  %39 = lshr i32 %37, 8
  %.not.i86 = icmp eq i64 %indvars.iv.next.i85, 0
  br i1 %.not.i86, label %inc_128.exit87, label %.preheader, !llvm.loop !38

inc_128.exit87:                                   ; preds = %.preheader
  %40 = tail call fastcc i32 @ctr_update(ptr noundef %0, ptr noundef %.054, i64 noundef %.058, ptr noundef null, i64 noundef 0, ptr noundef null, i64 noundef 0)
  br label %.loopexit

41:                                               ; preds = %inc_128.exit82
  tail call void @llvm.memset.p0.i64(ptr align 1 %1, i8 0, i64 %2, i1 false)
  %42 = getelementptr inbounds nuw i8, ptr %8, i64 8
  %43 = getelementptr inbounds nuw i8, ptr %8, i64 96
  br label %44

44:                                               ; preds = %68, %41
  %.053 = phi i64 [ %2, %41 ], [ %71, %68 ]
  %.052 = phi ptr [ %1, %41 ], [ %70, %68 ]
  %45 = load ptr, ptr %42, align 8, !tbaa !16
  %46 = call i32 @EVP_CipherInit_ex(ptr noundef %45, ptr noundef null, ptr noundef null, ptr noundef null, ptr noundef nonnull %25, i32 noundef -1) #7
  %.not67 = icmp eq i32 %46, 0
  br i1 %.not67, label %.loopexit, label %47

47:                                               ; preds = %44
  %48 = call i64 @llvm.umin.i64(i64 %.053, i64 1073741824)
  %49 = trunc nuw nsw i64 %48 to i32
  %50 = add nuw nsw i32 %49, 15
  %51 = lshr i32 %50, 4
  %52 = load i32, ptr %43, align 4, !tbaa !22
  %53 = call i32 asm "bswapl $0", "=r,0,~{dirflag},~{fpsr},~{flags}"(i32 %52) #8, !srcloc !39
  %54 = add i32 %53, %51
  %55 = icmp ult i32 %54, %51
  br i1 %55, label %56, label %ctr96_inc.exit

56:                                               ; preds = %47
  %.neg = mul i32 %53, -16
  br label %57

57:                                               ; preds = %57, %56
  %indvars.iv.i88 = phi i64 [ %indvars.iv.next.i90, %57 ], [ 12, %56 ]
  %.0.i89 = phi i32 [ %63, %57 ], [ 1, %56 ]
  %indvars.iv.next.i90 = add nsw i64 %indvars.iv.i88, -1
  %58 = getelementptr inbounds nuw i8, ptr %25, i64 %indvars.iv.next.i90
  %59 = load i8, ptr %58, align 1, !tbaa !26
  %60 = zext i8 %59 to i32
  %61 = add nuw nsw i32 %.0.i89, %60
  %62 = trunc i32 %61 to i8
  store i8 %62, ptr %58, align 1, !tbaa !26
  %63 = lshr i32 %61, 8
  %.not.i91 = icmp eq i64 %indvars.iv.next.i90, 0
  br i1 %.not.i91, label %ctr96_inc.exit.loopexit, label %57, !llvm.loop !40

ctr96_inc.exit.loopexit:                          ; preds = %57
  %.not68 = icmp eq i32 %54, 0
  %spec.select75 = select i1 %.not68, i32 %49, i32 %.neg
  br label %ctr96_inc.exit

ctr96_inc.exit:                                   ; preds = %ctr96_inc.exit.loopexit, %47
  %.056 = phi i32 [ %54, %47 ], [ 0, %ctr96_inc.exit.loopexit ]
  %.055 = phi i32 [ %49, %47 ], [ %spec.select75, %ctr96_inc.exit.loopexit ]
  %64 = call i32 asm "bswapl $0", "=r,0,~{dirflag},~{fpsr},~{flags}"(i32 %.056) #8, !srcloc !41
  store i32 %64, ptr %43, align 4, !tbaa !22
  %65 = load ptr, ptr %42, align 8, !tbaa !16
  %66 = call i32 @EVP_CipherUpdate(ptr noundef %65, ptr noundef %.052, ptr noundef nonnull %6, ptr noundef %.052, i32 noundef %.055) #7
  %.not69 = icmp ne i32 %66, 0
  %67 = load i32, ptr %6, align 4
  %.not70 = icmp eq i32 %67, %.055
  %or.cond76 = select i1 %.not69, i1 %.not70, i1 false
  br i1 %or.cond76, label %68, label %.loopexit

68:                                               ; preds = %ctr96_inc.exit
  %69 = sext i32 %.055 to i64
  %70 = getelementptr inbounds i8, ptr %.052, i64 %69
  %71 = sub i64 %.053, %69
  %.not71 = icmp eq i64 %71, 0
  br i1 %.not71, label %72, label %44, !llvm.loop !42

72:                                               ; preds = %68
  %73 = call fastcc i32 @ctr_update(ptr noundef %0, ptr noundef %.054, i64 noundef %.058, ptr noundef null, i64 noundef 0, ptr noundef null, i64 noundef 0)
  br label %.loopexit

.loopexit:                                        ; preds = %ctr96_inc.exit, %44, %72, %inc_128.exit87, %inc_128.exit
  %.0 = phi i32 [ 0, %inc_128.exit ], [ %40, %inc_128.exit87 ], [ %73, %72 ], [ 0, %44 ], [ 0, %ctr96_inc.exit ]
  call void @llvm.lifetime.end.p0(i64 4, ptr nonnull %6) #7
  ret i32 %.0
}